target datalayout = "e-m:e-p270:32:32-p271:32:32-p272:64:64-i64:64-i128:128-f80:128-n8:16:32:64-S128"
target triple = "x86_64-pc-linux-gnu"

%class.XRelocationSetSelectorGroupStats = type { i64, i64, i64, i64, i64, i64 }
%class.XRelocationSetSelectorGroup = type { ptr, i8, i64, i64, i64, %class.GrowableArrayCHeap, i64, %class.XRelocationSetSelectorGroupStats }
%class.GrowableArrayCHeap = type { %class.GrowableArrayWithAllocator }
%class.GrowableArrayWithAllocator = type { %class.GrowableArrayView }
%class.GrowableArrayView = type { %class.GrowableArrayBase, ptr }
%class.GrowableArrayBase = type { i32, i32 }
%class.XRelocationSetSelector = type { %class.XRelocationSetSelectorGroup, %class.XRelocationSetSelectorGroup, %class.XRelocationSetSelectorGroup, %class.GrowableArrayCHeap }

@.str.7 = private unnamed_addr constant [6 x i8] c"Small\00", align 1
@.str.8 = private unnamed_addr constant [7 x i8] c"Medium\00", align 1
@XPageSizeMedium = external global i64, align 8
@XObjectSizeLimitMedium = external global i64, align 8
@.str.9 = private unnamed_addr constant [6 x i8] c"Large\00", align 1
@_ZN27XRelocationSetSelectorGroupC1EPKchmm = hidden unnamed_addr alias void (ptr, ptr, i8, i64, i64), ptr @_ZN27XRelocationSetSelectorGroupC2EPKchmm

; Function Attrs: mustprogress nounwind uwtable
define linkonce_odr hidden void @_ZN17GrowableArrayBaseC2Eii(ptr noundef nonnull align 4 dereferenceable(8) %0, i32 noundef %1, i32 noundef %2) unnamed_addr #1 comdat align 2 {
  %4 = alloca ptr, align 8
  %5 = alloca i32, align 4
  %6 = alloca i32, align 4
  store ptr %0, ptr %4, align 8
  store i32 %1, ptr %5, align 4
  store i32 %2, ptr %6, align 4
  %7 = load ptr, ptr %4, align 8
  %8 = getelementptr inbounds %class.GrowableArrayBase, ptr %7, i32 0, i32 0
  %9 = load i32, ptr %6, align 4
  store i32 %9, ptr %8, align 4
  %10 = getelementptr inbounds %class.GrowableArrayBase, ptr %7, i32 0, i32 1
  %11 = load i32, ptr %5, align 4
  store i32 %11, ptr %10, align 4
  ret void
}

; Function Attrs: mustprogress nounwind uwtable
define linkonce_odr hidden void @_ZN17GrowableArrayViewIP5XPageEC2EPS1_ii(ptr noundef nonnull align 8 dereferenceable(16) %0, ptr noundef %1, i32 noundef %2, i32 noundef %3) unnamed_addr #1 comdat align 2 {
  %5 = alloca ptr, align 8
  %6 = alloca ptr, align 8
  %7 = alloca i32, align 4
  %8 = alloca i32, align 4
  store ptr %0, ptr %5, align 8
  store ptr %1, ptr %6, align 8
  store i32 %2, ptr %7, align 4
  store i32 %3, ptr %8, align 4
  %9 = load ptr, ptr %5, align 8
  %10 = load i32, ptr %7, align 4
  %11 = load i32, ptr %8, align 4
  call void @_ZN17GrowableArrayBaseC2Eii(ptr noundef nonnull align 4 dereferenceable(8) %9, i32 noundef %10, i32 noundef %11)
  %12 = getelementptr inbounds %class.GrowableArrayView, ptr %9, i32 0, i32 1
  %13 = load ptr, ptr %6, align 8
  store ptr %13, ptr %12, align 8
  ret void
}

; Function Attrs: mustprogress nounwind uwtable
define linkonce_odr hidden void @_ZN26GrowableArrayWithAllocatorIP5XPage18GrowableArrayCHeapIS1_L8MEMFLAGS5EEEC2EPS1_i(ptr noundef nonnull align 8 dereferenceable(16) %0, ptr noundef %1, i32 noundef %2) unnamed_addr #1 comdat align 2 {
  %4 = alloca ptr, align 8
  %5 = alloca ptr, align 8
  %6 = alloca i32, align 4
  %7 = alloca i32, align 4
  store ptr %0, ptr %4, align 8
  store ptr %1, ptr %5, align 8
  store i32 %2, ptr %6, align 4
  %8 = load ptr, ptr %4, align 8
  %9 = load ptr, ptr %5, align 8
  %10 = load i32, ptr %6, align 4
  call void @_ZN17GrowableArrayViewIP5XPageEC2EPS1_ii(ptr noundef nonnull align 8 dereferenceable(16) %8, ptr noundef %9, i32 noundef %10, i32 noundef 0)
  store i32 0, ptr %7, align 4
  br label %11

11:                                               ; preds = %20, %3
  %12 = load i32, ptr %7, align 4
  %13 = load i32, ptr %6, align 4
  %14 = icmp slt i32 %12, %13
  br i1 %14, label %15, label %23

15:                                               ; preds = %11
  %16 = load ptr, ptr %5, align 8
  %17 = load i32, ptr %7, align 4
  %18 = sext i32 %17 to i64
  %19 = getelementptr inbounds ptr, ptr %16, i64 %18
  store ptr null, ptr %19, align 8
  br label %20

20:                                               ; preds = %15
  %21 = load i32, ptr %7, align 4
  %22 = add nsw i32 %21, 1
  store i32 %22, ptr %7, align 4
  br label %11, !llvm.loop !21

23:                                               ; preds = %11
  ret void
}

; Function Attrs: mustprogress nounwind uwtable
define linkonce_odr hidden noundef ptr @_ZN18GrowableArrayCHeapIP5XPageL8MEMFLAGS5EE8allocateEiS2_(i32 noundef %0, i8 noundef zeroext %1) #1 comdat align 2 {
  %3 = alloca ptr, align 8
  %4 = alloca i32, align 4
  %5 = alloca i8, align 1
  store i32 %0, ptr %4, align 4
  store i8 %1, ptr %5, align 1
  %6 = load i32, ptr %4, align 4
  %7 = icmp eq i32 %6, 0
  br i1 %7, label %8, label %9

8:                                                ; preds = %2
  store ptr null, ptr %3, align 8
  br label %13

9:                                                ; preds = %2
  %10 = load i32, ptr %4, align 4
  %11 = load i8, ptr %5, align 1
  %12 = call noundef ptr @_ZN27GrowableArrayCHeapAllocator8allocateEii8MEMFLAGS(i32 noundef %10, i32 noundef 8, i8 noundef zeroext %11)
  store ptr %12, ptr %3, align 8
  br label %13

13:                                               ; preds = %9, %8
  %14 = load ptr, ptr %3, align 8
  ret ptr %14
}

; Function Attrs: mustprogress nounwind uwtable
define linkonce_odr hidden void @_ZN18GrowableArrayCHeapIP5XPageL8MEMFLAGS5EEC2Ei(ptr noundef nonnull align 8 dereferenceable(16) %0, i32 noundef %1) unnamed_addr #1 comdat align 2 {
  %3 = alloca ptr, align 8
  %4 = alloca i32, align 4
  store ptr %0, ptr %3, align 8
  store i32 %1, ptr %4, align 4
  %5 = load ptr, ptr %3, align 8
  %6 = load i32, ptr %4, align 4
  %7 = call noundef ptr @_ZN18GrowableArrayCHeapIP5XPageL8MEMFLAGS5EE8allocateEiS2_(i32 noundef %6, i8 noundef zeroext 5)
  %8 = load i32, ptr %4, align 4
  call void @_ZN26GrowableArrayWithAllocatorIP5XPage18GrowableArrayCHeapIS1_L8MEMFLAGS5EEEC2EPS1_i(ptr noundef nonnull align 8 dereferenceable(16) %5, ptr noundef %7, i32 noundef %8)
  ret void
}

; Function Attrs: mustprogress nounwind uwtable
define hidden void @_ZN22XRelocationSetSelectorC2Ev(ptr noundef nonnull align 8 dereferenceable(352) %0) unnamed_addr #1 align 2 {
  %2 = alloca ptr, align 8
  store ptr %0, ptr %2, align 8
  %3 = load ptr, ptr %2, align 8
  %4 = getelementptr inbounds %class.XRelocationSetSelector, ptr %3, i32 0, i32 0
  call void @_ZN27XRelocationSetSelectorGroupC1EPKchmm(ptr noundef nonnull align 8 dereferenceable(112) %4, ptr noundef @.str.7, i8 noundef zeroext 0, i64 noundef 2097152, i64 noundef 262144)
  %5 = getelementptr inbounds %class.XRelocationSetSelector, ptr %3, i32 0, i32 1
  %6 = load i64, ptr @XPageSizeMedium, align 8
  %7 = load i64, ptr @XObjectSizeLimitMedium, align 8
  call void @_ZN27XRelocationSetSelectorGroupC1EPKchmm(ptr noundef nonnull align 8 dereferenceable(112) %5, ptr noundef @.str.8, i8 noundef zeroext 1, i64 noundef %6, i64 noundef %7)
  %8 = getelementptr inbounds %class.XRelocationSetSelector, ptr %3, i32 0, i32 2
  call void @_ZN27XRelocationSetSelectorGroupC1EPKchmm(ptr noundef nonnull align 8 dereferenceable(112) %8, ptr noundef @.str.9, i8 noundef zeroext 2, i64 noundef 0, i64 noundef 0)
  %9 = getelementptr inbounds %class.XRelocationSetSelector, ptr %3, i32 0, i32 3
  call void @_ZN18GrowableArrayCHeapIP5XPageL8MEMFLAGS5EEC2Ei(ptr noundef nonnull align 8 dereferenceable(16) %9, i32 noundef 0)
  ret void
}