; Function Attrs: mustprogress nofree norecurse nosync nounwind willreturn memory(read, argmem: write, inaccessiblemem: none) uwtable
define hidden void @_ZN22XRelocationSetSelectorC2Ev(ptr nocapture noundef nonnull writeonly align 8 dereferenceable(352) %0) unnamed_addr #1 align 2 {
  store ptr @.str.7, ptr %0, align 8
  %2 = getelementptr inbounds i8, ptr %0, i64 8
  store i8 0, ptr %2, align 8
  %3 = getelementptr inbounds i8, ptr %0, i64 16
  store i64 2097152, ptr %3, align 8
  %4 = getelementptr inbounds i8, ptr %0, i64 24
  store i64 262144, ptr %4, align 8
  %5 = getelementptr inbounds i8, ptr %0, i64 32
  %6 = load double, ptr @ZFragmentationLimit, align 8
  %7 = fdiv double %6, 1.000000e+02
  %8 = fmul double %7, 0x4140000000000000
  %9 = fptoui double %8 to i64
  store i64 %9, ptr %5, align 8
  %10 = getelementptr inbounds i8, ptr %0, i64 40
  tail call void @llvm.memset.p0.i64(ptr noundef nonnull align 8 dereferenceable(72) %10, i8 0, i64 72, i1 false)
  %11 = getelementptr inbounds i8, ptr %0, i64 112
  %12 = load i64, ptr @XPageSizeMedium, align 8
  %13 = load i64, ptr @XObjectSizeLimitMedium, align 8
  store ptr @.str.8, ptr %11, align 8
  %14 = getelementptr inbounds i8, ptr %0, i64 120
  store i8 1, ptr %14, align 8
  %15 = getelementptr inbounds i8, ptr %0, i64 128
  store i64 %12, ptr %15, align 8
  %16 = getelementptr inbounds i8, ptr %0, i64 136
  store i64 %13, ptr %16, align 8
  %17 = getelementptr inbounds i8, ptr %0, i64 144
  %18 = uitofp i64 %12 to double
  %19 = fmul double %7, %18
  %20 = fptoui double %19 to i64
  store i64 %20, ptr %17, align 8
  %21 = getelementptr inbounds i8, ptr %0, i64 152
  tail call void @llvm.memset.p0.i64(ptr noundef nonnull align 8 dereferenceable(72) %21, i8 0, i64 72, i1 false)
  %22 = getelementptr inbounds i8, ptr %0, i64 224
  store ptr @.str.9, ptr %22, align 8
  %23 = getelementptr inbounds i8, ptr %0, i64 232
  store i8 2, ptr %23, align 8
  %24 = getelementptr inbounds i8, ptr %0, i64 240
  %25 = getelementptr inbounds i8, ptr %0, i64 256
  %26 = fmul double %7, 0.000000e+00
  %27 = fptoui double %26 to i64
  tail call void @llvm.memset.p0.i64(ptr noundef nonnull align 8 dereferenceable(16) %24, i8 0, i64 16, i1 false)
  store i64 %27, ptr %25, align 8
  %28 = getelementptr inbounds i8, ptr %0, i64 264
  tail call void @llvm.memset.p0.i64(ptr noundef nonnull align 8 dereferenceable(88) %28, i8 0, i64 88, i1 false)
  ret void
}